target datalayout = "e-m:e-p270:32:32-p271:32:32-p272:64:64-i64:64-i128:128-f80:128-n8:16:32:64-S128"
target triple = "x86_64-pc-linux-gnu"

%struct.libpq_source = type { %struct.rewind_source, ptr, i32, [1000 x %struct.fetch_range_request], %struct.StringInfoData, %struct.StringInfoData, %struct.StringInfoData }
%struct.rewind_source = type { ptr, ptr, ptr, ptr, ptr, ptr, ptr }
%struct.fetch_range_request = type { ptr, i64, i64 }
%struct.StringInfoData = type { ptr, i32, i32, i32 }

; Function Attrs: nounwind uwtable
define internal void @libpq_destroy(ptr noundef %0) #0 {
  %2 = alloca ptr, align 8
  %3 = alloca ptr, align 8
  store ptr %0, ptr %2, align 8
  call void @llvm.lifetime.start.p0(i64 8, ptr %3) #10
  %4 = load ptr, ptr %2, align 8
  store ptr %4, ptr %3, align 8
  %5 = load ptr, ptr %3, align 8
  %6 = getelementptr inbounds nuw %struct.libpq_source, ptr %5, i32 0, i32 4
  %7 = getelementptr inbounds nuw %struct.StringInfoData, ptr %6, i32 0, i32 0
  %8 = load ptr, ptr %7, align 8
  call void @pfree(ptr noundef %8)
  %9 = load ptr, ptr %3, align 8
  %10 = getelementptr inbounds nuw %struct.libpq_source, ptr %9, i32 0, i32 5
  %11 = getelementptr inbounds nuw %struct.StringInfoData, ptr %10, i32 0, i32 0
  %12 = load ptr, ptr %11, align 8
  call void @pfree(ptr noundef %12)
  %13 = load ptr, ptr %3, align 8
  %14 = getelementptr inbounds nuw %struct.libpq_source, ptr %13, i32 0, i32 6
  %15 = getelementptr inbounds nuw %struct.StringInfoData, ptr %14, i32 0, i32 0
  %16 = load ptr, ptr %15, align 8
  call void @pfree(ptr noundef %16)
  %17 = load ptr, ptr %3, align 8
  call void @pfree(ptr noundef %17)
  call void @llvm.lifetime.end.p0(i64 8, ptr %3) #10
  ret void
}