; Function Attrs: nounwind uwtable
define internal void @libpq_destroy(ptr noundef %0) #0 {
  %2 = getelementptr inbounds nuw i8, ptr %0, i64 24072
  %3 = load ptr, ptr %2, align 8
  tail call void @pfree(ptr noundef %3) #10
  %4 = getelementptr inbounds nuw i8, ptr %0, i64 24096
  %5 = load ptr, ptr %4, align 8
  tail call void @pfree(ptr noundef %5) #10
  %6 = getelementptr inbounds nuw i8, ptr %0, i64 24120
  %7 = load ptr, ptr %6, align 8
  tail call void @pfree(ptr noundef %7) #10
  tail call void @pfree(ptr noundef %0) #10
  ret void
}